(dp0
(I8
I6
I7
tp1
(lp2
I1
aI5
as(I8
I1
I7
tp3
(lp4
I1
aI5
as(I1
I4
I7
tp5
(lp6
I5
aI9
as(I10
I8
I1
tp7
(lp8
I7
as(I6
I8
I9
tp9
(lp10
I8
as(I8
I1
I9
tp11
(lp12
I7
aI10
as(I7
I6
I9
tp13
(lp14
I8
aI10
as(I7
I9
I4
tp15
(lp16
I2
aI10
as(I7
I10
I8
tp17
(lp18
I3
aI6
aI9
as(I8
I2
I10
tp19
(lp20
I4
aI5
as(I1
I4
I2
tp21
(lp22
I4
as(I10
I7
I1
tp23
(lp24
I5
aI7
as(I3
I7
I4
tp25
(lp26
I1
aI10
as(I3
I10
I4
tp27
(lp28
I1
aI10
as(I7
I9
I8
tp29
(lp30
I9
as(I8
I2
I3
tp31
(lp32
I2
aI6
as(I5
I2
I3
tp33
(lp34
I2
as(I9
I7
I10
tp35
(lp36
I4
aI5
as(I6
I8
I6
tp37
(lp38
I2
aI3
aI8
as(I5
I2
I7
tp39
(lp40
I1
aI9
as(I7
I10
I6
tp41
(lp42
I2
as(I6
I7
I4
tp43
(lp44
I1
aI10
as(I7
I6
I10
tp45
(lp46
I4
aI9
as(I7
I3
I8
tp47
(lp48
I3
aI6
as(I4
I1
I5
tp49
(lp50
I1
aI7
as(I7
I3
I6
tp51
(lp52
I2
aI3
as(I8
I6
I8
tp53
(lp54
I3
aI6
aI9
as(I9
I1
I3
tp55
(lp56
I2
as(I2
I5
I3
tp57
(lp58
I8
as(I1
I8
I2
tp59
(lp60
I3
aI6
as(I3
I7
I2
tp61
(lp62
I4
aI6
as(I7
I3
I4
tp63
(lp64
I2
as(I8
I2
I9
tp65
(lp66
I7
aI10
as(I6
I7
I8
tp67
(lp68
I9
as(I2
I8
I10
tp69
(lp70
I5
aI9
as(I6
I10
I9
tp71
(lp72
I7
aI10
as(I5
I2
I9
tp73
(lp74
I8
aI10
as(I9
I1
I5
tp75
(lp76
I1
aI7
aI10
as(I2
I5
I1
tp77
(lp78
I5
aI7
as(I8
I10
I3
tp79
(lp80
I2
aI6
as(I7
I10
I7
tp81
(lp82
I1
aI5
aI9
as(I6
I10
I7
tp83
(lp84
I5
as(I8
I6
I10
tp85
(lp86
I4
aI5
as(I9
I1
I7
tp87
(lp88
I1
aI5
as(I2
I5
I7
tp89
(lp90
I5
as(I1
I8
I6
tp91
(lp92
I8
as(I10
I6
I10
tp93
(lp94
I4
aI5
aI9
as(I10
I7
I2
tp95
(lp96
I3
aI4
aI6
as(I2
I5
I8
tp97
(lp98
I9
as(I9
I7
I1
tp99
(lp100
I5
aI7
as(I4
I1
I3
tp101
(lp102
I6
aI8
as(I7
I3
I1
tp103
(lp104
I4
as(I8
I10
I6
tp105
(lp106
I2
aI3
as(I7
I9
I10
tp107
(lp108
I4
aI9
as(I6
I10
I5
tp109
(lp110
I10
as(I8
I6
I5
tp111
(lp112
I1
as(I9
I1
I9
tp113
(lp114
I7
aI8
aI10
as(I1
I8
I4
tp115
(lp116
I2
aI10
as(I3
I7
I8
tp117
(lp118
I9
as(I10
I7
I4
tp119
(lp120
I1
aI2
as(I3
I10
I3
tp121
(lp122
I2
aI6
aI8
as(I4
I3
I6
tp123
(lp124
I3
aI8
as(I2
I8
I2
tp125
(lp126
I3
aI4
aI6
as(I6
I10
I3
tp127
(lp128
I2
aI8
as(I8
I2
I4
tp129
(lp130
I2
as(I3
I4
I5
tp131
(lp132
I1
as(I1
I8
I10
tp133
(lp134
I9
as(I8
I10
I2
tp135
(lp136
I4
as(I10
I7
I6
tp137
(lp138
I8
as(I7
I6
I2
tp139
(lp140
I3
aI6
as(I5
I2
I1
tp141
(lp142
I4
as(I4
I3
I4
tp143
(lp144
I1
aI2
aI10
as(I2
I9
I6
tp145
(lp146
I3
aI8
as(I6
I10
I1
tp147
(lp148
I5
as(I3
I4
I7
tp149
(lp150
I1
as(I10
I6
I5
tp151
(lp152
I1
aI7
as(I10
I6
I9
tp153
(lp154
I8
as(I10
I7
I8
tp155
(lp156
I3
aI9
as(I2
I5
I9
tp157
(lp158
I7
aI10
as(I4
I1
I9
tp159
(lp160
I7
as(I4
I3
I2
tp161
(lp162
I3
aI6
as(I2
I9
I4
tp163
(lp164
I1
aI10
as(I7
I6
I4
tp165
(lp166
I2
as(I3
I4
I1
tp167
(lp168
I4
as(I10
I6
I3
tp169
(lp170
I2
aI6
aI8
as(I10
I7
I10
tp171
(lp172
I4
aI5
aI9
as(I3
I10
I5
tp173
(lp174
I10
as(I8
I2
I7
tp175
(lp176
I1
aI5
as(I2
I9
I2
tp177
(lp178
I3
aI4
aI6
as(I3
I10
I1
tp179
(lp180
I5
as(I8
I6
I2
tp181
(lp182
I3
aI6
as(I1
I9
I1
tp183
(lp184
I4
aI5
aI7
as(I3
I4
I3
tp185
(lp186
I2
aI6
aI8
as(I10
I6
I1
tp187
(lp188
I4
as(I4
I3
I10
tp189
(lp190
I5
aI9
as(I7
I6
I3
tp191
(lp192
I2
aI6
as(I9
I7
I4
tp193
(lp194
I1
as(I6
I1
I2
tp195
(lp196
I4
as(I7
I10
I5
tp197
(lp198
I1
aI10
as(I1
I6
I10
tp199
(lp200
I9
as(I6
I1
I10
tp201
(lp202
I4
aI5
as(I9
I2
I4
tp203
(lp204
I2
as(I1
I9
I3
tp205
(lp206
I8
as(I10
I8
I4
tp207
(lp208
I1
aI2
as(I7
I10
I3
tp209
(lp210
I2
aI8
as(I10
I6
I8
tp211
(lp212
I3
aI6
as(I6
I7
I9
tp213
(lp214
I7
aI10
as(I5
I4
I3
tp215
(lp216
I2
as(I1
I6
I4
tp217
(lp218
I2
aI10
as(I9
I2
I6
tp219
(lp220
I2
aI3
as(I9
I7
I8
tp221
(lp222
I3
aI6
as(I1
I9
I5
tp223
(lp224
I7
aI10
as(I10
I8
I6
tp225
(lp226
I3
aI8
as(I4
I5
I2
tp227
(lp228
I3
aI6
as(I6
I1
I6
tp229
(lp230
I2
aI3
aI8
as(I5
I4
I1
tp231
(lp232
I4
aI7
as(I9
I2
I8
tp233
(lp234
I3
aI6
as(I7
I3
I2
tp235
(lp236
I3
aI6
as(I1
I9
I7
tp237
(lp238
I5
aI9
as(I3
I4
I9
tp239
(lp240
I7
aI10
as(I4
I5
I4
tp241
(lp242
I1
aI2
aI10
as(I8
I10
I4
tp243
(lp244
I10
as(I7
I9
I3
tp245
(lp246
I8
as(I8
I10
I5
tp247
(lp248
I10
as(I4
I3
I8
tp249
(lp250
I3
aI6
as(I5
I4
I7
tp251
(lp252
I1
aI9
as(I2
I9
I10
tp253
(lp254
I5
aI9
as(I8
I10
I8
tp255
(lp256
I3
aI6
aI9
as(I9
I2
I10
tp257
(lp258
I4
aI5
as(I10
I3
I7
tp259
(lp260
I9
as(I10
I8
I2
tp261
(lp262
I3
aI6
as(I4
I5
I6
tp263
(lp264
I8
as(I10
I6
I7
tp265
(lp266
I9
as(I8
I1
I2
tp267
(lp268
I4
as(I8
I2
I8
tp269
(lp270
I3
aI6
aI9
as(I2
I8
I5
tp271
(lp272
I7
aI10
as(I5
I4
I5
tp273
(lp274
I1
aI7
aI10
as(I1
I6
I2
tp275
(lp276
I3
aI6
as(I10
I3
I2
tp277
(lp278
I3
aI6
as(I1
I4
I9
tp279
(lp280
I8
aI10
as(I6
I7
I3
tp281
(lp282
I2
aI8
as(I4
I5
I8
tp283
(lp284
I9
as(I3
I7
I6
tp285
(lp286
I2
aI8
as(I10
I3
I4
tp287
(lp288
I2
as(I8
I1
I4
tp289
(lp290
I1
as(I2
I8
I7
tp291
(lp292
I9
as(I6
I7
I5
tp293
(lp294
I7
as(I5
I2
I4
tp295
(lp296
I2
as(I1
I9
I6
tp297
(lp298
I8
as(I6
I8
I4
tp299
(lp300
I1
aI10
as(I4
I5
I10
tp301
(lp302
I5
aI9
as(I6
I1
I4
tp303
(lp304
I1
aI10
as(I8
I2
I1
tp305
(lp306
I4
as(I9
I1
I10
tp307
(lp308
I4
aI5
as(I8
I1
I6
tp309
(lp310
I2
aI3
as(I2
I8
I1
tp311
(lp312
I5
aI7
as(I5
I4
I9
tp313
(lp314
I7
aI8
aI10
as(I5
I2
I6
tp315
(lp316
I2
as(I6
I1
I8
tp317
(lp318
I3
aI9
as(I2
I5
I10
tp319
(lp320
I5
aI9
as(I1
I4
I1
tp321
(lp322
I4
aI5
aI7
as(I8
I1
I8
tp323
(lp324
I3
aI6
aI9
as(I2
I8
I3
tp325
(lp326
I6
aI8
as(I6
I7
I1
tp327
(lp328
I5
aI7
as(I8
I6
I1
tp329
(lp330
I4
as(I1
I4
I5
tp331
(lp332
I7
aI10
as(I9
I7
I2
tp333
(lp334
I4
as(I3
I7
I5
tp335
(lp336
I7
as(I7
I3
I9
tp337
(lp338
I8
aI10
as(I10
I3
I5
tp339
(lp340
I1
aI7
as(I8
I1
I10
tp341
(lp342
I4
aI5
as(I7
I10
I9
tp343
(lp344
I8
aI10
as(I8
I6
I3
tp345
(lp346
I2
aI6
as(I1
I4
I3
tp347
(lp348
I2
as(I6
I8
I10
tp349
(lp350
I5
aI9
as(I3
I7
I10
tp351
(lp352
I5
aI9
as(I4
I3
I9
tp353
(lp354
I8
as(I3
I10
I6
tp355
(lp356
I2
aI8
as(I10
I3
I8
tp357
(lp358
I3
aI6
as(I6
I1
I9
tp359
(lp360
I7
aI10
as(I9
I7
I3
tp361
(lp362
I2
aI6
as(I3
I7
I1
tp363
(lp364
I5
aI7
as(I4
I1
I4
tp365
(lp366
I1
aI2
aI10
as(I9
I7
I9
tp367
(lp368
I7
aI8
aI10
as(I10
I3
I10
tp369
(lp370
I4
aI5
aI9
as(I1
I4
I10
tp371
(lp372
I4
aI9
as(I2
I8
I9
tp373
(lp374
I8
as(I2
I5
I2
tp375
(lp376
I3
aI4
aI6
as(I10
I8
I3
tp377
(lp378
I6
aI8
as(I4
I1
I6
tp379
(lp380
I8
as(I7
I9
I1
tp381
(lp382
I4
aI5
as(I7
I6
I1
tp383
(lp384
I4
as(I5
I2
I8
tp385
(lp386
I3
aI6
as(I9
I1
I2
tp387
(lp388
I4
as(I1
I8
I3
tp389
(lp390
I6
aI8
as(I7
I3
I5
tp391
(lp392
I1
aI10
as(I3
I10
I7
tp393
(lp394
I5
as(I7
I10
I1
tp395
(lp396
I4
aI5
as(I5
I2
I10
tp397
(lp398
I4
aI9
as(I9
I1
I4
tp399
(lp400
I1
as(I2
I5
I6
tp401
(lp402
I8
as(I1
I8
I1
tp403
(lp404
I4
aI5
aI7
as(I7
I3
I7
tp405
(lp406
I1
aI5
aI9
as(I2
I9
I8
tp407
(lp408
I9
as(I10
I6
I4
tp409
(lp410
I2
as(I4
I1
I2
tp411
(lp412
I3
aI6
as(I10
I3
I6
tp413
(lp414
I2
aI3
aI8
as(I6
I10
I6
tp415
(lp416
I2
aI3
aI8
as(I9
I1
I6
tp417
(lp418
I2
as(I2
I5
I4
tp419
(lp420
I1
aI10
as(I1
I8
I7
tp421
(lp422
I5
aI9
as(I3
I7
I9
tp423
(lp424
I7
aI10
as(I10
I7
I3
tp425
(lp426
I2
aI8
as(I3
I7
I3
tp427
(lp428
I2
aI6
aI8
as(I3
I10
I2
tp429
(lp430
I4
aI6
as(I6
I8
I2
tp431
(lp432
I3
aI4
as(I6
I10
I4
tp433
(lp434
I1
aI10
as(I9
I1
I8
tp435
(lp436
I3
aI6
as(I8
I10
I9
tp437
(lp438
I7
aI10
as(I1
I8
I5
tp439
(lp440
I7
aI10
as(I10
I7
I5
tp441
(lp442
I1
aI7
as(I2
I8
I4
tp443
(lp444
I1
aI10
as(I4
I3
I7
tp445
(lp446
I9
as(I3
I10
I9
tp447
(lp448
I7
aI10
as(I6
I10
I2
tp449
(lp450
I3
aI4
as(I9
I7
I6
tp451
(lp452
I2
as(I3
I4
I6
tp453
(lp454
I2
aI8
as(I7
I6
I8
tp455
(lp456
I3
aI6
as(I4
I1
I8
tp457
(lp458
I9
as(I4
I3
I5
tp459
(lp460
I7
aI10
as(I2
I9
I7
tp461
(lp462
I9
as(I7
I6
I7
tp463
(lp464
I1
aI5
aI9
as(I10
I8
I9
tp465
(lp466
I8
as(I1
I8
I9
tp467
(lp468
I8
as(I10
I7
I9
tp469
(lp470
I7
aI8
as(I7
I3
I10
tp471
(lp472
I4
aI9
as(I4
I1
I10
tp473
(lp474
I5
aI9
as(I7
I9
I7
tp475
(lp476
I1
aI5
aI9
as(I6
I7
I2
tp477
(lp478
I3
aI4
as(I2
I9
I5
tp479
(lp480
I7
aI10
as(I9
I2
I1
tp481
(lp482
I4
as(I7
I6
I5
tp483
(lp484
I1
aI10
as(I3
I4
I2
tp485
(lp486
I4
aI6
as(I10
I6
I2
tp487
(lp488
I3
aI6
as(I1
I6
I8
tp489
(lp490
I3
aI6
as(I4
I3
I1
tp491
(lp492
I5
aI7
as(I8
I6
I9
tp493
(lp494
I7
aI10
as(I2
I9
I3
tp495
(lp496
I6
aI8
as(I9
I2
I3
tp497
(lp498
I2
aI6
as(I9
I7
I5
tp499
(lp500
I1
aI7
as(I10
I8
I5
tp501
(lp502
I1
aI7
as(I4
I1
I7
tp503
(lp504
I1
aI5
as(I8
I2
I6
tp505
(lp506
I2
aI3
as(I6
I1
I3
tp507
(lp508
I2
aI8
as(I5
I4
I2
tp509
(lp510
I4
as(I2
I9
I1
tp511
(lp512
I5
aI7
as(I9
I2
I5
tp513
(lp514
I1
as(I1
I9
I2
tp515
(lp516
I3
aI6
as(I10
I8
I7
tp517
(lp518
I9
as(I4
I5
I1
tp519
(lp520
I5
aI7
as(I3
I10
I8
tp521
(lp522
I6
aI9
as(I7
I9
I6
tp523
(lp524
I8
as(I7
I10
I4
tp525
(lp526
I2
aI10
as(I1
I6
I5
tp527
(lp528
I7
aI10
as(I9
I2
I7
tp529
(lp530
I1
aI5
as(I1
I9
I4
tp531
(lp532
I2
aI10
as(I3
I4
I8
tp533
(lp534
I6
aI9
as(I4
I5
I3
tp535
(lp536
I8
as(I8
I10
I7
tp537
(lp538
I1
aI5
as(I6
I1
I7
tp539
(lp540
I1
aI5
as(I7
I10
I2
tp541
(lp542
I3
aI4
as(I1
I6
I7
tp543
(lp544
I9
as(I9
I2
I9
tp545
(lp546
I7
aI8
aI10
as(I6
I8
I1
tp547
(lp548
I7
as(I10
I8
I10
tp549
(lp550
I4
aI5
aI9
as(I3
I4
I10
tp551
(lp552
I4
aI5
as(I8
I6
I4
tp553
(lp554
I2
as(I10
I3
I9
tp555
(lp556
I8
as(I7
I9
I2
tp557
(lp558
I3
aI6
as(I6
I1
I5
tp559
(lp560
I1
as(I6
I7
I10
tp561
(lp562
I5
aI9
as(I1
I6
I1
tp563
(lp564
I4
aI5
aI7
as(I8
I2
I5
tp565
(lp566
I1
as(I1
I6
I9
tp567
(lp568
I8
as(I6
I8
I3
tp569
(lp570
I2
aI8
as(I1
I9
I8
tp571
(lp572
I9
as(I4
I5
I7
tp573
(lp574
I1
aI5
aI9
as(I6
I7
I6
tp575
(lp576
I2
aI3
aI8
as(I8
I1
I3
tp577
(lp578
I2
aI6
as(I7
I9
I5
tp579
(lp580
I1
aI10
as(I5
I4
I10
tp581
(lp582
I4
aI9
as(I1
I6
I3
tp583
(lp584
I6
aI8
as(I1
I4
I8
tp585
(lp586
I3
aI6
as(I6
I8
I5
tp587
(lp588
I7
as(I1
I9
I10
tp589
(lp590
I5
aI9
as(I4
I5
I9
tp591
(lp592
I7
aI10
as(I6
I10
I8
tp593
(lp594
I3
aI9
as(I8
I1
I5
tp595
(lp596
I1
as(I2
I8
I6
tp597
(lp598
I3
aI8
as(I5
I4
I8
tp599
(lp600
I3
as(I5
I2
I5
tp601
(lp602
I1
aI7
aI10
as(I1
I4
I6
tp603
(lp604
I2
as(I10
I3
I1
tp605
(lp606
I4
as(I6
I8
I7
tp607
(lp608
I9
as(I8
I10
I1
tp609
(lp610
I4
aI5
as.